target datalayout = "e-m:e-p270:32:32-p271:32:32-p272:64:64-i64:64-i128:128-f80:128-n8:16:32:64-S128"
target triple = "x86_64-pc-linux-gnu"

%struct.lua_State = type { i8, i8, i8, i8, i8, i8, i8, ptr, ptr, ptr, ptr, ptr, ptr, ptr, ptr, i32, i32, i16, i16, i32, ptr, ptr, ptr, ptr, ptr }
%struct.lua_TValue = type { %union.Value, [1 x i32], i32 }
%union.Value = type { ptr }

; Function Attrs: mustprogress uwtable
define internal noundef i32 @_ZL9sort_funcP9lua_StatePK10lua_TValueS3_(ptr noundef %0, ptr noundef %1, ptr noundef %2) #0 {
  %4 = alloca ptr, align 8
  %5 = alloca ptr, align 8
  %6 = alloca ptr, align 8
  %7 = alloca ptr, align 8
  %8 = alloca ptr, align 8
  %9 = alloca ptr, align 8
  %10 = alloca ptr, align 8
  %11 = alloca ptr, align 8
  %12 = alloca ptr, align 8
  store ptr %0, ptr %4, align 8, !tbaa !4
  store ptr %1, ptr %5, align 8, !tbaa !28
  store ptr %2, ptr %6, align 8, !tbaa !28
  call void @llvm.lifetime.start.p0(i64 8, ptr %7) #7
  %13 = load ptr, ptr %4, align 8, !tbaa !4
  %14 = getelementptr inbounds nuw %struct.lua_State, ptr %13, i32 0, i32 8
  %15 = load ptr, ptr %14, align 8, !tbaa !9
  %16 = getelementptr inbounds %struct.lua_TValue, ptr %15, i64 1
  store ptr %16, ptr %7, align 8, !tbaa !28
  call void @llvm.lifetime.start.p0(i64 8, ptr %8) #7
  %17 = load ptr, ptr %4, align 8, !tbaa !4
  %18 = getelementptr inbounds nuw %struct.lua_State, ptr %17, i32 0, i32 7
  %19 = load ptr, ptr %18, align 8, !tbaa !29
  store ptr %19, ptr %8, align 8, !tbaa !28
  %20 = load ptr, ptr %7, align 8, !tbaa !28
  %21 = load ptr, ptr %8, align 8, !tbaa !28
  call void @llvm.memcpy.p0.p0.i64(ptr align 8 %21, ptr align 8 %20, i64 16, i1 false), !tbaa.struct !30
  call void @llvm.lifetime.end.p0(i64 8, ptr %8) #7
  call void @llvm.lifetime.end.p0(i64 8, ptr %7) #7
  call void @llvm.lifetime.start.p0(i64 8, ptr %9) #7
  %22 = load ptr, ptr %5, align 8, !tbaa !28
  store ptr %22, ptr %9, align 8, !tbaa !28
  call void @llvm.lifetime.start.p0(i64 8, ptr %10) #7
  %23 = load ptr, ptr %4, align 8, !tbaa !4
  %24 = getelementptr inbounds nuw %struct.lua_State, ptr %23, i32 0, i32 7
  %25 = load ptr, ptr %24, align 8, !tbaa !29
  %26 = getelementptr inbounds %struct.lua_TValue, ptr %25, i64 1
  store ptr %26, ptr %10, align 8, !tbaa !28
  %27 = load ptr, ptr %9, align 8, !tbaa !28
  %28 = load ptr, ptr %10, align 8, !tbaa !28
  call void @llvm.memcpy.p0.p0.i64(ptr align 8 %28, ptr align 8 %27, i64 16, i1 false), !tbaa.struct !30
  call void @llvm.lifetime.end.p0(i64 8, ptr %10) #7
  call void @llvm.lifetime.end.p0(i64 8, ptr %9) #7
  call void @llvm.lifetime.start.p0(i64 8, ptr %11) #7
  %29 = load ptr, ptr %6, align 8, !tbaa !28
  store ptr %29, ptr %11, align 8, !tbaa !28
  call void @llvm.lifetime.start.p0(i64 8, ptr %12) #7
  %30 = load ptr, ptr %4, align 8, !tbaa !4
  %31 = getelementptr inbounds nuw %struct.lua_State, ptr %30, i32 0, i32 7
  %32 = load ptr, ptr %31, align 8, !tbaa !29
  %33 = getelementptr inbounds %struct.lua_TValue, ptr %32, i64 2
  store ptr %33, ptr %12, align 8, !tbaa !28
  %34 = load ptr, ptr %11, align 8, !tbaa !28
  %35 = load ptr, ptr %12, align 8, !tbaa !28
  call void @llvm.memcpy.p0.p0.i64(ptr align 8 %35, ptr align 8 %34, i64 16, i1 false), !tbaa.struct !30
  call void @llvm.lifetime.end.p0(i64 8, ptr %12) #7
  call void @llvm.lifetime.end.p0(i64 8, ptr %11) #7
  %36 = load ptr, ptr %4, align 8, !tbaa !4
  %37 = getelementptr inbounds nuw %struct.lua_State, ptr %36, i32 0, i32 7
  %38 = load ptr, ptr %37, align 8, !tbaa !29
  %39 = getelementptr inbounds %struct.lua_TValue, ptr %38, i64 3
  store ptr %39, ptr %37, align 8, !tbaa !29
  %40 = load ptr, ptr %4, align 8, !tbaa !4
  %41 = load ptr, ptr %4, align 8, !tbaa !4
  %42 = getelementptr inbounds nuw %struct.lua_State, ptr %41, i32 0, i32 7
  %43 = load ptr, ptr %42, align 8, !tbaa !29
  %44 = getelementptr inbounds %struct.lua_TValue, ptr %43, i64 -3
  call void @_Z9luaD_callP9lua_StateP10lua_TValuei(ptr noundef %40, ptr noundef %44, i32 noundef 1)
  %45 = load ptr, ptr %4, align 8, !tbaa !4
  %46 = getelementptr inbounds nuw %struct.lua_State, ptr %45, i32 0, i32 7
  %47 = load ptr, ptr %46, align 8, !tbaa !29
  %48 = getelementptr inbounds %struct.lua_TValue, ptr %47, i64 -1
  store ptr %48, ptr %46, align 8, !tbaa !29
  %49 = load ptr, ptr %4, align 8, !tbaa !4
  %50 = getelementptr inbounds nuw %struct.lua_State, ptr %49, i32 0, i32 7
  %51 = load ptr, ptr %50, align 8, !tbaa !29
  %52 = getelementptr inbounds nuw %struct.lua_TValue, ptr %51, i32 0, i32 2
  %53 = load i32, ptr %52, align 4, !tbaa !43
  %54 = icmp eq i32 %53, 0
  br i1 %54, label %71, label %55

55:                                               ; preds = %3
  %56 = load ptr, ptr %4, align 8, !tbaa !4
  %57 = getelementptr inbounds nuw %struct.lua_State, ptr %56, i32 0, i32 7
  %58 = load ptr, ptr %57, align 8, !tbaa !29
  %59 = getelementptr inbounds nuw %struct.lua_TValue, ptr %58, i32 0, i32 2
  %60 = load i32, ptr %59, align 4, !tbaa !43
  %61 = icmp eq i32 %60, 1
  br i1 %61, label %62, label %69

62:                                               ; preds = %55
  %63 = load ptr, ptr %4, align 8, !tbaa !4
  %64 = getelementptr inbounds nuw %struct.lua_State, ptr %63, i32 0, i32 7
  %65 = load ptr, ptr %64, align 8, !tbaa !29
  %66 = getelementptr inbounds nuw %struct.lua_TValue, ptr %65, i32 0, i32 0
  %67 = load i32, ptr %66, align 8, !tbaa !21
  %68 = icmp eq i32 %67, 0
  br label %69

69:                                               ; preds = %62, %55
  %70 = phi i1 [ false, %55 ], [ %68, %62 ]
  br label %71

71:                                               ; preds = %69, %3
  %72 = phi i1 [ true, %3 ], [ %70, %69 ]
  %73 = xor i1 %72, true
  %74 = zext i1 %73 to i32
  ret i32 %74
}