; Function Attrs: mustprogress uwtable
define internal noundef range(i32 0, 2) i32 @_ZL9sort_funcP9lua_StatePK10lua_TValueS3_(ptr noundef %0, ptr noundef readonly captures(none) %1, ptr noundef readonly captures(none) %2) #0 {
  %4 = getelementptr inbounds nuw i8, ptr %0, i64 16
  %5 = load ptr, ptr %4, align 8, !tbaa !4
  %6 = getelementptr inbounds nuw i8, ptr %5, i64 16
  %7 = getelementptr inbounds nuw i8, ptr %0, i64 8
  %8 = load ptr, ptr %7, align 8, !tbaa !24
  tail call void @llvm.memcpy.p0.p0.i64(ptr noundef nonnull align 8 dereferenceable(16) %8, ptr noundef nonnull align 8 dereferenceable(16) %6, i64 16, i1 false), !tbaa.struct !25
  %9 = load ptr, ptr %7, align 8, !tbaa !24
  %10 = getelementptr inbounds nuw i8, ptr %9, i64 16
  tail call void @llvm.memcpy.p0.p0.i64(ptr noundef nonnull align 8 dereferenceable(16) %10, ptr noundef nonnull align 8 dereferenceable(16) %1, i64 16, i1 false), !tbaa.struct !25
  %11 = load ptr, ptr %7, align 8, !tbaa !24
  %12 = getelementptr inbounds nuw i8, ptr %11, i64 32
  tail call void @llvm.memcpy.p0.p0.i64(ptr noundef nonnull align 8 dereferenceable(16) %12, ptr noundef nonnull align 8 dereferenceable(16) %2, i64 16, i1 false), !tbaa.struct !25
  %13 = load ptr, ptr %7, align 8, !tbaa !24
  %14 = getelementptr inbounds nuw i8, ptr %13, i64 48
  store ptr %14, ptr %7, align 8, !tbaa !24
  tail call void @_Z9luaD_callP9lua_StateP10lua_TValuei(ptr noundef %0, ptr noundef %13, i32 noundef 1)
  %15 = load ptr, ptr %7, align 8, !tbaa !24
  %16 = getelementptr inbounds i8, ptr %15, i64 -16
  store ptr %16, ptr %7, align 8, !tbaa !24
  %17 = getelementptr inbounds i8, ptr %15, i64 -4
  %18 = load i32, ptr %17, align 4, !tbaa !37
  switch i32 %18, label %.fold.split [
    i32 0, label %23
    i32 1, label %19
  ]

19:                                               ; preds = %3
  %20 = load i32, ptr %16, align 8, !tbaa !19
  %21 = icmp ne i32 %20, 0
  %22 = zext i1 %21 to i32
  br label %23

.fold.split:                                      ; preds = %3
  br label %23

23:                                               ; preds = %3, %.fold.split, %19
  %24 = phi i32 [ %18, %3 ], [ %22, %19 ], [ 1, %.fold.split ]
  ret i32 %24
}